target datalayout = "e-m:e-p270:32:32-p271:32:32-p272:64:64-i64:64-i128:128-f80:128-n8:16:32:64-S128"
target triple = "x86_64-pc-linux-gnu"

%"struct.cv::softdouble" = type { i64 }

; Function Attrs: mustprogress nounwind uwtable
define internal void @_ZN2cvL10raiseFlagsEh(i8 noundef zeroext %0) #1 {
  %2 = alloca i8, align 1
  store i8 %0, ptr %2, align 1
  ret void
}

; Function Attrs: mustprogress nounwind uwtable
define internal noundef i64 @_ZN2cvL25softfloat_shiftRightJam64Emm(i64 noundef %0, i64 noundef %1) #1 {
  %3 = alloca i64, align 8
  %4 = alloca i64, align 8
  store i64 %0, ptr %3, align 8
  store i64 %1, ptr %4, align 8
  %5 = load i64, ptr %4, align 8
  %6 = icmp ult i64 %5, 63
  br i1 %6, label %7, label %20

7:                                                ; preds = %2
  %8 = load i64, ptr %3, align 8
  %9 = load i64, ptr %4, align 8
  %10 = lshr i64 %8, %9
  %11 = load i64, ptr %3, align 8
  %12 = load i64, ptr %4, align 8
  %13 = xor i64 %12, -1
  %14 = add i64 %13, 1
  %15 = and i64 %14, 63
  %16 = shl i64 %11, %15
  %17 = icmp ne i64 %16, 0
  %18 = zext i1 %17 to i64
  %19 = or i64 %10, %18
  br label %24

20:                                               ; preds = %2
  %21 = load i64, ptr %3, align 8
  %22 = icmp ne i64 %21, 0
  %23 = zext i1 %22 to i64
  br label %24

24:                                               ; preds = %20, %7
  %25 = phi i64 [ %19, %7 ], [ %23, %20 ]
  ret i64 %25
}

; Function Attrs: mustprogress nounwind uwtable
define linkonce_odr hidden void @_ZN2cv10softdoubleC2Ev(ptr noundef nonnull align 8 dereferenceable(8) %0) unnamed_addr #1 comdat align 2 {
  %2 = alloca ptr, align 8
  store ptr %0, ptr %2, align 8
  %3 = load ptr, ptr %2, align 8
  %4 = getelementptr inbounds %"struct.cv::softdouble", ptr %3, i32 0, i32 0
  store i64 0, ptr %4, align 8
  ret void
}

; Function Attrs: mustprogress uwtable
define internal void @_ZN2cvL24softfloat_roundPackToF64Eblm(ptr dead_on_unwind noalias writable sret(%"struct.cv::softdouble") align 8 %0, i1 noundef zeroext %1, i64 noundef %2, i64 noundef %3) #0 {
  %5 = alloca ptr, align 8
  %6 = alloca i8, align 1
  %7 = alloca i64, align 8
  %8 = alloca i64, align 8
  %9 = alloca i8, align 1
  %10 = alloca i8, align 1
  %11 = alloca i64, align 8
  %12 = alloca i64, align 8
  %13 = alloca i8, align 1
  %14 = alloca i64, align 8
  store ptr %0, ptr %5, align 8
  %15 = zext i1 %1 to i8
  store i8 %15, ptr %6, align 1
  store i64 %2, ptr %7, align 8
  store i64 %3, ptr %8, align 8
  store i8 0, ptr %9, align 1
  %16 = load i8, ptr %9, align 1
  %17 = zext i8 %16 to i32
  %18 = icmp eq i32 %17, 0
  %19 = zext i1 %18 to i8
  store i8 %19, ptr %10, align 1
  store i64 512, ptr %11, align 8
  %20 = load i8, ptr %10, align 1
  %21 = trunc i8 %20 to i1
  br i1 %21, label %35, label %22

22:                                               ; preds = %4
  %23 = load i8, ptr %9, align 1
  %24 = zext i8 %23 to i32
  %25 = icmp ne i32 %24, 4
  br i1 %25, label %26, label %35

26:                                               ; preds = %22
  %27 = load i8, ptr %9, align 1
  %28 = zext i8 %27 to i32
  %29 = load i8, ptr %6, align 1
  %30 = trunc i8 %29 to i1
  %31 = select i1 %30, i32 2, i32 3
  %32 = icmp eq i32 %28, %31
  %33 = select i1 %32, i32 1023, i32 0
  %34 = sext i32 %33 to i64
  store i64 %34, ptr %11, align 8
  br label %35

35:                                               ; preds = %26, %22, %4
  %36 = load i64, ptr %8, align 8
  %37 = and i64 %36, 1023
  store i64 %37, ptr %12, align 8
  %38 = load i64, ptr %7, align 8
  %39 = trunc i64 %38 to i16
  %40 = zext i16 %39 to i32
  %41 = icmp sle i32 2045, %40
  br i1 %41, label %42, label %91

42:                                               ; preds = %35
  %43 = load i64, ptr %7, align 8
  %44 = icmp slt i64 %43, 0
  br i1 %44, label %45, label %69

45:                                               ; preds = %42
  %46 = load i64, ptr %7, align 8
  %47 = icmp slt i64 %46, -1
  br i1 %47, label %53, label %48

48:                                               ; preds = %45
  %49 = load i64, ptr %8, align 8
  %50 = load i64, ptr %11, align 8
  %51 = add i64 %49, %50
  %52 = icmp ult i64 %51, -9223372036854775808
  br label %53

53:                                               ; preds = %48, %45
  %54 = phi i1 [ true, %45 ], [ %52, %48 ]
  %55 = zext i1 %54 to i8
  store i8 %55, ptr %13, align 1
  %56 = load i64, ptr %8, align 8
  %57 = load i64, ptr %7, align 8
  %58 = sub nsw i64 0, %57
  %59 = call noundef i64 @_ZN2cvL25softfloat_shiftRightJam64Emm(i64 noundef %56, i64 noundef %58)
  store i64 %59, ptr %8, align 8
  store i64 0, ptr %7, align 8
  %60 = load i64, ptr %8, align 8
  %61 = and i64 %60, 1023
  store i64 %61, ptr %12, align 8
  %62 = load i8, ptr %13, align 1
  %63 = trunc i8 %62 to i1
  br i1 %63, label %64, label %68

64:                                               ; preds = %53
  %65 = load i64, ptr %12, align 8
  %66 = icmp ne i64 %65, 0
  br i1 %66, label %67, label %68

67:                                               ; preds = %64
  call void @_ZN2cvL10raiseFlagsEh(i8 noundef zeroext 2)
  br label %68

68:                                               ; preds = %67, %64, %53
  br label %90

69:                                               ; preds = %42
  %70 = load i64, ptr %7, align 8
  %71 = icmp slt i64 2045, %70
  br i1 %71, label %77, label %72

72:                                               ; preds = %69
  %73 = load i64, ptr %8, align 8
  %74 = load i64, ptr %11, align 8
  %75 = add i64 %73, %74
  %76 = icmp ule i64 -9223372036854775808, %75
  br i1 %76, label %77, label %89

77:                                               ; preds = %72, %69
  call void @_ZN2cvL10raiseFlagsEh(i8 noundef zeroext 5)
  %78 = load i8, ptr %6, align 1
  %79 = trunc i8 %78 to i1
  %80 = zext i1 %79 to i64
  %81 = shl i64 %80, 63
  %82 = add i64 %81, 9218868437227405312
  %83 = add i64 %82, 0
  %84 = load i64, ptr %11, align 8
  %85 = icmp ne i64 %84, 0
  %86 = xor i1 %85, true
  %87 = zext i1 %86 to i64
  %88 = sub i64 %83, %87
  store i64 %88, ptr %14, align 8
  br label %134

89:                                               ; preds = %72
  br label %90

90:                                               ; preds = %89, %68
  br label %91

91:                                               ; preds = %90, %35
  %92 = load i64, ptr %8, align 8
  %93 = load i64, ptr %11, align 8
  %94 = add i64 %92, %93
  %95 = lshr i64 %94, 10
  store i64 %95, ptr %8, align 8
  %96 = load i64, ptr %12, align 8
  %97 = icmp ne i64 %96, 0
  br i1 %97, label %98, label %106

98:                                               ; preds = %91
  call void @_ZN2cvL10raiseFlagsEh(i8 noundef zeroext 1)
  %99 = load i8, ptr %9, align 1
  %100 = zext i8 %99 to i32
  %101 = icmp eq i32 %100, 5
  br i1 %101, label %102, label %105

102:                                              ; preds = %98
  %103 = load i64, ptr %8, align 8
  %104 = or i64 %103, 1
  store i64 %104, ptr %8, align 8
  br label %124

105:                                              ; preds = %98
  br label %106

106:                                              ; preds = %105, %91
  %107 = load i64, ptr %12, align 8
  %108 = xor i64 %107, 512
  %109 = icmp ne i64 %108, 0
  %110 = xor i1 %109, true
  %111 = zext i1 %110 to i32
  %112 = load i8, ptr %10, align 1
  %113 = trunc i8 %112 to i1
  %114 = zext i1 %113 to i32
  %115 = and i32 %111, %114
  %116 = sext i32 %115 to i64
  %117 = xor i64 %116, -1
  %118 = load i64, ptr %8, align 8
  %119 = and i64 %118, %117
  store i64 %119, ptr %8, align 8
  %120 = load i64, ptr %8, align 8
  %121 = icmp ne i64 %120, 0
  br i1 %121, label %123, label %122

122:                                              ; preds = %106
  store i64 0, ptr %7, align 8
  br label %123

123:                                              ; preds = %122, %106
  br label %124

124:                                              ; preds = %123, %102
  %125 = load i8, ptr %6, align 1
  %126 = trunc i8 %125 to i1
  %127 = zext i1 %126 to i64
  %128 = shl i64 %127, 63
  %129 = load i64, ptr %7, align 8
  %130 = shl i64 %129, 52
  %131 = add i64 %128, %130
  %132 = load i64, ptr %8, align 8
  %133 = add i64 %131, %132
  store i64 %133, ptr %14, align 8
  br label %134

134:                                              ; preds = %124, %77
  %135 = load i64, ptr %14, align 8
  call void @_ZN2cv10softdouble7fromRawEm(ptr dead_on_unwind writable sret(%"struct.cv::softdouble") align 8 %0, i64 noundef %135)
  ret void
}

; Function Attrs: mustprogress nounwind uwtable
define internal noundef i64 @_ZN2cvL30softfloat_shortShiftRightJam64Emh(i64 noundef %0, i8 noundef zeroext %1) #1 {
  %3 = alloca i64, align 8
  %4 = alloca i8, align 1
  store i64 %0, ptr %3, align 8
  store i8 %1, ptr %4, align 1
  %5 = load i64, ptr %3, align 8
  %6 = load i8, ptr %4, align 1
  %7 = zext i8 %6 to i32
  %8 = zext i32 %7 to i64
  %9 = lshr i64 %5, %8
  %10 = load i64, ptr %3, align 8
  %11 = load i8, ptr %4, align 1
  %12 = zext i8 %11 to i32
  %13 = zext i32 %12 to i64
  %14 = shl i64 1, %13
  %15 = sub i64 %14, 1
  %16 = and i64 %10, %15
  %17 = icmp ne i64 %16, 0
  %18 = zext i1 %17 to i64
  %19 = or i64 %9, %18
  ret i64 %19
}

; Function Attrs: mustprogress uwtable
define linkonce_odr hidden void @_ZN2cv10softdouble7fromRawEm(ptr dead_on_unwind noalias writable sret(%"struct.cv::softdouble") align 8 %0, i64 noundef %1) #0 comdat align 2 {
  %3 = alloca ptr, align 8
  %4 = alloca i64, align 8
  store ptr %0, ptr %3, align 8
  store i64 %1, ptr %4, align 8
  call void @_ZN2cv10softdoubleC2Ev(ptr noundef nonnull align 8 dereferenceable(8) %0)
  %5 = load i64, ptr %4, align 8
  %6 = getelementptr inbounds %"struct.cv::softdouble", ptr %0, i32 0, i32 0
  store i64 %5, ptr %6, align 8
  ret void
}

; Function Attrs: mustprogress nounwind uwtable
define linkonce_odr hidden noundef nonnull align 8 dereferenceable(8) ptr @_ZN2cv10softdoubleaSERKS0_(ptr noundef nonnull align 8 dereferenceable(8) %0, ptr noundef nonnull align 8 dereferenceable(8) %1) #1 comdat align 2 {
  %3 = alloca ptr, align 8
  %4 = alloca ptr, align 8
  store ptr %0, ptr %3, align 8
  store ptr %1, ptr %4, align 8
  %5 = load ptr, ptr %3, align 8
  %6 = load ptr, ptr %4, align 8
  %7 = icmp ne ptr %6, %5
  br i1 %7, label %8, label %13

8:                                                ; preds = %2
  %9 = load ptr, ptr %4, align 8
  %10 = getelementptr inbounds %"struct.cv::softdouble", ptr %9, i32 0, i32 0
  %11 = load i64, ptr %10, align 8
  %12 = getelementptr inbounds %"struct.cv::softdouble", ptr %5, i32 0, i32 0
  store i64 %11, ptr %12, align 8
  br label %13

13:                                               ; preds = %8, %2
  ret ptr %5
}

; Function Attrs: mustprogress uwtable
define internal void @_ZN2cvL11ui64_to_f64Em(ptr dead_on_unwind noalias writable sret(%"struct.cv::softdouble") align 8 %0, i64 noundef %1) #0 {
  %3 = alloca ptr, align 8
  %4 = alloca i64, align 8
  store ptr %0, ptr %3, align 8
  store i64 %1, ptr %4, align 8
  %5 = load i64, ptr %4, align 8
  %6 = icmp ne i64 %5, 0
  br i1 %6, label %8, label %7

7:                                                ; preds = %2
  call void @_ZN2cv10softdouble7fromRawEm(ptr dead_on_unwind writable sret(%"struct.cv::softdouble") align 8 %0, i64 noundef 0)
  br label %17

8:                                                ; preds = %2
  %9 = load i64, ptr %4, align 8
  %10 = and i64 %9, -9223372036854775808
  %11 = icmp ne i64 %10, 0
  br i1 %11, label %12, label %15

12:                                               ; preds = %8
  %13 = load i64, ptr %4, align 8
  %14 = call noundef i64 @_ZN2cvL30softfloat_shortShiftRightJam64Emh(i64 noundef %13, i8 noundef zeroext 1)
  call void @_ZN2cvL24softfloat_roundPackToF64Eblm(ptr dead_on_unwind writable sret(%"struct.cv::softdouble") align 8 %0, i1 noundef zeroext false, i64 noundef 1085, i64 noundef %14)
  br label %17

15:                                               ; preds = %8
  %16 = load i64, ptr %4, align 8
  call void @_ZN2cvL28softfloat_normRoundPackToF64Eblm(ptr dead_on_unwind writable sret(%"struct.cv::softdouble") align 8 %0, i1 noundef zeroext false, i64 noundef 1084, i64 noundef %16)
  br label %17

17:                                               ; preds = %15, %12, %7
  ret void
}

; Function Attrs: mustprogress uwtable
define void @_ZN2cv10softdoubleC2Em(ptr noundef nonnull align 8 dereferenceable(8) %0, i64 noundef %1) unnamed_addr #0 align 2 {
  %3 = alloca ptr, align 8
  %4 = alloca i64, align 8
  %5 = alloca %"struct.cv::softdouble", align 8
  store ptr %0, ptr %3, align 8
  store i64 %1, ptr %4, align 8
  %6 = load ptr, ptr %3, align 8
  %7 = load i64, ptr %4, align 8
  call void @_ZN2cvL11ui64_to_f64Em(ptr dead_on_unwind writable sret(%"struct.cv::softdouble") align 8 %5, i64 noundef %7)
  %8 = call noundef nonnull align 8 dereferenceable(8) ptr @_ZN2cv10softdoubleaSERKS0_(ptr noundef nonnull align 8 dereferenceable(8) %6, ptr noundef nonnull align 8 dereferenceable(8) %5)
  ret void
}