; Function Attrs: mustprogress nofree norecurse nosync nounwind willreturn memory(argmem: write) uwtable
define void @_ZN2cv10softdoubleC2Em(ptr nocapture noundef nonnull writeonly align 8 dereferenceable(8) %0, i64 noundef %1) unnamed_addr #0 align 2 {
  %3 = alloca %"struct.cv::softdouble", align 8
  %.not.i = icmp eq i64 %1, 0
  br i1 %.not.i, label %_ZN2cvL11ui64_to_f64Em.exit, label %4

4:                                                ; preds = %2
  %.not4.i = icmp sgt i64 %1, -1
  br i1 %.not4.i, label %15, label %5

5:                                                ; preds = %4
  %6 = lshr i64 %1, 1
  %7 = and i64 %1, 1
  %.masked.i = and i64 %6, 1023
  %.039.i.i = or i64 %.masked.i, %7
  %8 = add nuw i64 %6, 512
  %9 = lshr i64 %8, 10
  %.not48.i.i = icmp eq i64 %.039.i.i, 512
  %10 = zext i1 %.not48.i.i to i64
  %11 = xor i64 %10, -1
  %12 = and i64 %9, %11
  %.not49.i.i = icmp eq i64 %12, 0
  %13 = select i1 %.not49.i.i, i64 0, i64 4886405595696988160
  %14 = add nuw nsw i64 %13, %12
  br label %_ZN2cvL11ui64_to_f64Em.exit

15:                                               ; preds = %4
  call fastcc void @_ZN2cvL28softfloat_normRoundPackToF64Eblm(ptr dead_on_unwind noalias nonnull writable align 8 %3, i1 noundef zeroext false, i64 noundef 1084, i64 noundef %1), !alias.scope !46
  %.pre = load i64, ptr %3, align 8
  br label %_ZN2cvL11ui64_to_f64Em.exit

_ZN2cvL11ui64_to_f64Em.exit:                      ; preds = %2, %15, %5
  %16 = phi i64 [ %.pre, %15 ], [ %14, %5 ], [ 0, %2 ]
  store i64 %16, ptr %0, align 8
  ret void
}